target datalayout = "e-m:e-p270:32:32-p271:32:32-p272:64:64-i64:64-i128:128-f80:128-n8:16:32:64-S128"
target triple = "x86_64-pc-linux-gnu"

%class.CompileLog = type { %class.xmlStream, ptr, i64, i64, %class.stringStream, [100 x i8], ptr, i32, i32, ptr }
%class.xmlStream = type { %class.outputStream, ptr, i64, i32, ptr, %class.xmlTextStream }
%class.outputStream = type { ptr, i32, i8, i32, i64, %class.TimeStamp, ptr, i64 }
%class.TimeStamp = type { i64 }
%class.xmlTextStream = type { %class.outputStream, ptr }
%class.stringStream = type <{ %class.outputStream, ptr, i64, i64, i8, [48 x i8], [7 x i8] }>

; Function Attrs: mustprogress nounwind uwtable
define linkonce_odr hidden void @_ZN12outputStreamD2Ev(ptr noundef nonnull align 8 dereferenceable(56) %0) unnamed_addr #1 comdat align 2 {
  %2 = alloca ptr, align 8
  store ptr %0, ptr %2, align 8
  ret void
}

; Function Attrs: mustprogress nounwind uwtable
define linkonce_odr hidden void @_ZN13xmlTextStreamD2Ev(ptr noundef nonnull align 8 dereferenceable(64) %0) unnamed_addr #1 comdat align 2 {
  %2 = alloca ptr, align 8
  store ptr %0, ptr %2, align 8
  %3 = load ptr, ptr %2, align 8
  call void @_ZN12outputStreamD2Ev(ptr noundef nonnull align 8 dereferenceable(56) %3) #8
  ret void
}

; Function Attrs: mustprogress nounwind uwtable
define linkonce_odr hidden void @_ZN9xmlStreamD2Ev(ptr noundef nonnull align 8 dereferenceable(152) %0) unnamed_addr #1 comdat align 2 {
  %2 = alloca ptr, align 8
  store ptr %0, ptr %2, align 8
  %3 = load ptr, ptr %2, align 8
  %4 = getelementptr inbounds %class.xmlStream, ptr %3, i32 0, i32 5
  call void @_ZN13xmlTextStreamD2Ev(ptr noundef nonnull align 8 dereferenceable(64) %4) #8
  call void @_ZN12outputStreamD2Ev(ptr noundef nonnull align 8 dereferenceable(56) %3) #8
  ret void
}

; Function Attrs: mustprogress nounwind uwtable
define hidden void @_ZN10CompileLogD2Ev(ptr noundef nonnull align 8 dereferenceable(440) %0) unnamed_addr #1 align 2 {
  %2 = alloca ptr, align 8
  store ptr %0, ptr %2, align 8
  %3 = load ptr, ptr %2, align 8
  store ptr getelementptr inbounds inrange(-16, 56) ({ [9 x ptr] }, ptr @_ZTV10CompileLog, i32 0, i32 0, i32 2), ptr %3, align 8
  %4 = getelementptr inbounds %class.xmlStream, ptr %3, i32 0, i32 1
  %5 = load ptr, ptr %4, align 8
  %6 = icmp eq ptr %5, null
  br i1 %6, label %11, label %7

7:                                                ; preds = %1
  %8 = load ptr, ptr %5, align 8
  %9 = getelementptr inbounds ptr, ptr %8, i64 4
  %10 = load ptr, ptr %9, align 8
  call void %10(ptr noundef nonnull align 8 dereferenceable(56) %5) #8
  br label %11

11:                                               ; preds = %7, %1
  %12 = getelementptr inbounds %class.xmlStream, ptr %3, i32 0, i32 1
  store ptr null, ptr %12, align 8
  %13 = getelementptr inbounds %class.CompileLog, ptr %3, i32 0, i32 1
  %14 = load ptr, ptr %13, align 8
  %15 = call i32 @unlink(ptr noundef %14) #8
  %16 = getelementptr inbounds %class.CompileLog, ptr %3, i32 0, i32 6
  %17 = load ptr, ptr %16, align 8
  call void @_Z8FreeHeapPv(ptr noundef %17)
  %18 = getelementptr inbounds %class.CompileLog, ptr %3, i32 0, i32 1
  %19 = load ptr, ptr %18, align 8
  call void @_Z8FreeHeapPv(ptr noundef %19)
  %20 = getelementptr inbounds %class.CompileLog, ptr %3, i32 0, i32 4
  call void @_ZN12stringStreamD1Ev(ptr noundef nonnull align 8 dereferenceable(129) %20) #8
  call void @_ZN9xmlStreamD2Ev(ptr noundef nonnull align 8 dereferenceable(152) %3) #8
  ret void
}