; Function Attrs: mustprogress nounwind uwtable
define hidden void @_ZN10CompileLogD2Ev(ptr noundef nonnull align 8 dereferenceable(440) %0) unnamed_addr #0 align 2 {
  store ptr getelementptr inbounds inrange(-16, 56) (i8, ptr @_ZTV10CompileLog, i64 16), ptr %0, align 8
  %2 = getelementptr inbounds i8, ptr %0, i64 56
  %3 = load ptr, ptr %2, align 8
  %4 = icmp eq ptr %3, null
  br i1 %4, label %9, label %5

5:                                                ; preds = %1
  %6 = load ptr, ptr %3, align 8
  %7 = getelementptr inbounds i8, ptr %6, i64 32
  %8 = load ptr, ptr %7, align 8
  tail call void %8(ptr noundef nonnull align 8 dereferenceable(56) %3) #11
  br label %9

9:                                                ; preds = %5, %1
  store ptr null, ptr %2, align 8
  %10 = getelementptr inbounds i8, ptr %0, i64 152
  %11 = load ptr, ptr %10, align 8
  %12 = tail call i32 @unlink(ptr noundef %11) #11
  %13 = getelementptr inbounds i8, ptr %0, i64 416
  %14 = load ptr, ptr %13, align 8
  tail call void @_Z8FreeHeapPv(ptr noundef %14) #11
  %15 = load ptr, ptr %10, align 8
  tail call void @_Z8FreeHeapPv(ptr noundef %15) #11
  %16 = getelementptr inbounds i8, ptr %0, i64 176
  tail call void @_ZN12stringStreamD1Ev(ptr noundef nonnull align 8 dereferenceable(129) %16) #11
  ret void
}